; Function Attrs: mustprogress uwtable
define internal void @_ZN12_GLOBAL__N_119elim_uncnstr_tactic28user_propagate_register_exprEP4expr(ptr noundef nonnull align 8 dereferenceable(120) %0, ptr noundef %1) unnamed_addr #3 align 2 {
  %3 = alloca ptr, align 8
  %4 = getelementptr inbounds nuw i8, ptr %0, i64 56
  call void @llvm.lifetime.start.p0(i64 8, ptr nonnull %3) #24
  store ptr %1, ptr %3, align 8, !tbaa !44
  call void @_ZN14core_hashtableI14obj_hash_entryI4exprE12obj_ptr_hashIS1_E6ptr_eqIS1_EE6insertEOPS1_(ptr noundef nonnull align 8 dereferenceable(20) %4, ptr noundef nonnull align 8 dereferenceable(8) %3)
  call void @llvm.lifetime.end.p0(i64 8, ptr nonnull %3) #24
  ret void
}